target datalayout = "e-m:e-p270:32:32-p271:32:32-p272:64:64-i64:64-i128:128-f80:128-n8:16:32:64-S128"
target triple = "x86_64-pc-linux-gnu"

%struct.point_t = type { float, float }
%struct.image_t = type { ptr, ptr, ptr, i32, i32, ptr, float, i32, i32, float, [4 x %struct.point_t], ptr, i32 }

; Function Attrs: nounwind uwtable
define dso_local void @center_image(ptr noundef %0, ptr noundef %1) #0 {
  %3 = alloca ptr, align 8
  %4 = alloca ptr, align 8
  store ptr %0, ptr %3, align 8, !tbaa !7
  store ptr %1, ptr %4, align 8, !tbaa !27
  %5 = load ptr, ptr %3, align 8, !tbaa !7
  %6 = load ptr, ptr %4, align 8, !tbaa !27
  %7 = getelementptr inbounds nuw %struct.image_t, ptr %6, i32 0, i32 7
  %8 = load i32, ptr %7, align 4, !tbaa !29
  %9 = sitofp i32 %8 to double
  %10 = load ptr, ptr %4, align 8, !tbaa !27
  %11 = getelementptr inbounds nuw %struct.image_t, ptr %10, i32 0, i32 8
  %12 = load i32, ptr %11, align 8, !tbaa !34
  %13 = sitofp i32 %12 to double
  call void @cairo_translate(ptr noundef %5, double noundef %9, double noundef %13)
  ret void
}