; Function Attrs: nounwind uwtable
define dso_local void @center_image(ptr noundef %0, ptr noundef readonly captures(none) %1) local_unnamed_addr #0 {
  %3 = getelementptr inbounds nuw i8, ptr %1, i64 44
  %4 = load i32, ptr %3, align 4, !tbaa !18
  %5 = sitofp i32 %4 to double
  %6 = getelementptr inbounds nuw i8, ptr %1, i64 48
  %7 = load i32, ptr %6, align 8, !tbaa !26
  %8 = sitofp i32 %7 to double
  tail call void @cairo_translate(ptr noundef %0, double noundef %5, double noundef %8) #8
  ret void
}